target datalayout = "e-m:e-p270:32:32-p271:32:32-p272:64:64-i64:64-i128:128-f80:128-n8:16:32:64-S128"
target triple = "x86_64-unknown-linux-gnu"

%"class.cvc5::internal::NodeTemplate.0" = type { ptr }
%"class.cvc5::internal::NodeTemplate" = type { ptr }
%"class.cvc5::internal::FatalStream" = type { i8 }
%"class.cvc5::internal::theory::arith::linear::Constraint" = type <{ i32, i32, %"class.cvc5::internal::DeltaRational", ptr, %"class.cvc5::internal::NodeTemplate", ptr, i8, [7 x i8], i64, %"class.cvc5::internal::NodeTemplate.0", i64, i8, [7 x i8], %"struct.std::_Rb_tree_iterator", i8, [7 x i8] }>
%"class.cvc5::internal::DeltaRational" = type { %"class.cvc5::internal::Rational", %"class.cvc5::internal::Rational" }
%"class.cvc5::internal::Rational" = type { %class.__gmp_expr }
%class.__gmp_expr = type { [1 x %struct.__mpq_struct] }
%struct.__mpq_struct = type { %struct.__mpz_struct, %struct.__mpz_struct }
%struct.__mpz_struct = type { i32, i32, ptr }
%"struct.std::_Rb_tree_iterator" = type { ptr }
%"class.cvc5::internal::theory::arith::linear::ValueCollection" = type { ptr, ptr, ptr, ptr }

@.str = private unnamed_addr constant [126 x i8] c"generated/home/dtcxzyw/WorkSpace/Projects/compilers/llvm-opt-benchmark/bench/cvc5/cvc5/src/theory/arith/linear/constraint.cpp\00", align 1
@.str.15 = private unnamed_addr constant [26 x i8] c"Unreachable code reached \00", align 1
@__PRETTY_FUNCTION__._ZN4cvc58internal6theory5arith6linear15ValueCollection3addEPNS3_10ConstraintE = private unnamed_addr constant [78 x i8] c"void cvc5::internal::theory::arith::linear::ValueCollection::add(ConstraintP)\00", align 1

; Function Attrs: mustprogress nounwind uwtable
define linkonce_odr hidden noundef i32 @_ZNK4cvc58internal6theory5arith6linear10Constraint7getTypeEv(ptr noundef nonnull align 8 dereferenceable(145) %this) #4 comdat align 2 {
entry:
  %this.addr = alloca ptr, align 8
  store ptr %this, ptr %this.addr, align 8
  %this1 = load ptr, ptr %this.addr, align 8
  %d_type = getelementptr inbounds %"class.cvc5::internal::theory::arith::linear::Constraint", ptr %this1, i32 0, i32 1
  %0 = load i32, ptr %d_type, align 4
  ret i32 %0
}

; Function Attrs: mustprogress uwtable
define hidden void @_ZN4cvc58internal6theory5arith6linear15ValueCollection3addEPNS3_10ConstraintE(ptr noundef nonnull align 8 dereferenceable(32) %this, ptr noundef %c) #5 align 2 personality ptr @__gxx_personality_v0 {
entry:
  %this.addr = alloca ptr, align 8
  %c.addr = alloca ptr, align 8
  %ref.tmp = alloca %"class.cvc5::internal::FatalStream", align 1
  %exn.slot = alloca ptr, align 8
  %ehselector.slot = alloca i32, align 4
  store ptr %this, ptr %this.addr, align 8
  store ptr %c, ptr %c.addr, align 8
  %this1 = load ptr, ptr %this.addr, align 8
  %0 = load ptr, ptr %c.addr, align 8
  %call = call noundef i32 @_ZNK4cvc58internal6theory5arith6linear10Constraint7getTypeEv(ptr noundef nonnull align 8 dereferenceable(145) %0)
  switch i32 %call, label %sw.default [
    i32 0, label %sw.bb
    i32 1, label %sw.bb2
    i32 2, label %sw.bb3
    i32 3, label %sw.bb4
  ]

sw.bb:                                            ; preds = %entry
  %1 = load ptr, ptr %c.addr, align 8
  %d_lowerBound = getelementptr inbounds %"class.cvc5::internal::theory::arith::linear::ValueCollection", ptr %this1, i32 0, i32 0
  store ptr %1, ptr %d_lowerBound, align 8
  br label %sw.epilog

sw.bb2:                                           ; preds = %entry
  %2 = load ptr, ptr %c.addr, align 8
  %d_equality = getelementptr inbounds %"class.cvc5::internal::theory::arith::linear::ValueCollection", ptr %this1, i32 0, i32 2
  store ptr %2, ptr %d_equality, align 8
  br label %sw.epilog

sw.bb3:                                           ; preds = %entry
  %3 = load ptr, ptr %c.addr, align 8
  %d_upperBound = getelementptr inbounds %"class.cvc5::internal::theory::arith::linear::ValueCollection", ptr %this1, i32 0, i32 1
  store ptr %3, ptr %d_upperBound, align 8
  br label %sw.epilog

sw.bb4:                                           ; preds = %entry
  %4 = load ptr, ptr %c.addr, align 8
  %d_disequality = getelementptr inbounds %"class.cvc5::internal::theory::arith::linear::ValueCollection", ptr %this1, i32 0, i32 3
  store ptr %4, ptr %d_disequality, align 8
  br label %sw.epilog

sw.default:                                       ; preds = %entry
  call void @_ZN4cvc58internal11FatalStreamC1EPKcS3_i(ptr noundef nonnull align 1 dereferenceable(1) %ref.tmp, ptr noundef @__PRETTY_FUNCTION__._ZN4cvc58internal6theory5arith6linear15ValueCollection3addEPNS3_10ConstraintE, ptr noundef @.str, i32 noundef 353)
  %call5 = invoke noundef nonnull align 8 dereferenceable(8) ptr @_ZN4cvc58internal11FatalStream6streamEv(ptr noundef nonnull align 1 dereferenceable(1) %ref.tmp)
          to label %invoke.cont unwind label %lpad

invoke.cont:                                      ; preds = %sw.default
  %call7 = invoke noundef nonnull align 8 dereferenceable(8) ptr @_ZStlsISt11char_traitsIcEERSt13basic_ostreamIcT_ES5_PKc(ptr noundef nonnull align 8 dereferenceable(8) %call5, ptr noundef @.str.15)
          to label %invoke.cont6 unwind label %lpad

invoke.cont6:                                     ; preds = %invoke.cont
  call void @_ZN4cvc58internal11FatalStreamD1Ev(ptr noundef nonnull align 1 dereferenceable(1) %ref.tmp) #16
  unreachable

lpad:                                             ; preds = %invoke.cont, %sw.default
  %5 = landingpad { ptr, i32 }
          cleanup
  %6 = extractvalue { ptr, i32 } %5, 0
  store ptr %6, ptr %exn.slot, align 8
  %7 = extractvalue { ptr, i32 } %5, 1
  store i32 %7, ptr %ehselector.slot, align 4
  call void @_ZN4cvc58internal11FatalStreamD1Ev(ptr noundef nonnull align 1 dereferenceable(1) %ref.tmp) #16
  unreachable

8:                                                ; No predecessors!
  br label %eh.resume

sw.epilog:                                        ; preds = %sw.bb4, %sw.bb3, %sw.bb2, %sw.bb
  ret void

eh.resume:                                        ; preds = %8
  %exn = load ptr, ptr %exn.slot, align 8
  %sel = load i32, ptr %ehselector.slot, align 4
  %lpad.val = insertvalue { ptr, i32 } poison, ptr %exn, 0
  %lpad.val8 = insertvalue { ptr, i32 } %lpad.val, i32 %sel, 1
  resume { ptr, i32 } %lpad.val8
}