; Function Attrs: mustprogress uwtable
define hidden void @_ZN4cvc58internal6theory5arith6linear15ValueCollection3addEPNS3_10ConstraintE(ptr nocapture noundef nonnull writeonly align 8 dereferenceable(32) %this, ptr noundef %c) local_unnamed_addr #4 align 2 personality ptr @__gxx_personality_v0 {
entry:
  %ref.tmp = alloca %"class.cvc5::internal::FatalStream", align 1
  %d_type.i = getelementptr inbounds i8, ptr %c, i64 4
  %0 = load i32, ptr %d_type.i, align 4
  switch i32 %0, label %sw.default [
    i32 0, label %sw.epilog
    i32 1, label %sw.bb2
    i32 2, label %sw.bb3
    i32 3, label %sw.bb4
  ]

sw.bb2:                                           ; preds = %entry
  %d_equality = getelementptr inbounds i8, ptr %this, i64 16
  br label %sw.epilog

sw.bb3:                                           ; preds = %entry
  %d_upperBound = getelementptr inbounds i8, ptr %this, i64 8
  br label %sw.epilog

sw.bb4:                                           ; preds = %entry
  %d_disequality = getelementptr inbounds i8, ptr %this, i64 24
  br label %sw.epilog

sw.default:                                       ; preds = %entry
  call void @_ZN4cvc58internal11FatalStreamC1EPKcS3_i(ptr noundef nonnull align 1 dereferenceable(1) %ref.tmp, ptr noundef nonnull @__PRETTY_FUNCTION__._ZN4cvc58internal6theory5arith6linear15ValueCollection3addEPNS3_10ConstraintE, ptr noundef nonnull @.str, i32 noundef 353)
  %call5 = invoke noundef nonnull align 8 dereferenceable(8) ptr @_ZN4cvc58internal11FatalStream6streamEv(ptr noundef nonnull align 1 dereferenceable(1) %ref.tmp)
          to label %invoke.cont unwind label %lpad

invoke.cont:                                      ; preds = %sw.default
  %call7 = invoke noundef nonnull align 8 dereferenceable(8) ptr @_ZStlsISt11char_traitsIcEERSt13basic_ostreamIcT_ES5_PKc(ptr noundef nonnull align 8 dereferenceable(8) %call5, ptr noundef nonnull @.str.15)
          to label %invoke.cont6 unwind label %lpad

invoke.cont6:                                     ; preds = %invoke.cont
  call void @_ZN4cvc58internal11FatalStreamD1Ev(ptr noundef nonnull align 1 dereferenceable(1) %ref.tmp) #23
  unreachable

lpad:                                             ; preds = %invoke.cont, %sw.default
  %1 = landingpad { ptr, i32 }
          cleanup
  call void @_ZN4cvc58internal11FatalStreamD1Ev(ptr noundef nonnull align 1 dereferenceable(1) %ref.tmp) #23
  unreachable

sw.epilog:                                        ; preds = %entry, %sw.bb4, %sw.bb3, %sw.bb2
  %d_disequality.sink = phi ptr [ %d_disequality, %sw.bb4 ], [ %d_upperBound, %sw.bb3 ], [ %d_equality, %sw.bb2 ], [ %this, %entry ]
  store ptr %c, ptr %d_disequality.sink, align 8
  ret void
}